(dp1
S'device'
p2
(dp3
S'length'
p4
I512
sS'unique'
p5
I00
sS'sortable'
p6
I3
sS'sql'
p7
S'INTEGER REFERENCES device (id) ON DELETE CASCADE  '
p8
sS'notnull'
p9
I00
sS'type'
p10
S'reference device'
p11
ssS'at_time'
p12
(dp13
g4
I512
sg5
I00
sg6
I2
sg7
S'TIMESTAMP'
p14
sg9
I00
sg10
S'datetime'
p15
ssS'ip_address'
p16
(dp17
g4
I512
sg5
I00
sg6
I5
sg7
S'CHAR(512)'
p18
sg9
I00
sg10
S'string'
p19
ssS'id'
p20
(dp21
g4
I512
sg5
I00
sg6
I1
sg7
S'INTEGER PRIMARY KEY AUTOINCREMENT'
p22
sg9
I00
sg10
S'id'
p23
ssS'site'
p24
(dp25
g4
I512
sg5
I00
sg6
I4
sg7
S'INTEGER REFERENCES site (id) ON DELETE CASCADE  '
p26
sg9
I00
sg10
S'reference site'
p27
ss.