(dp1
S'hospital'
p2
(dp3
S'length'
p4
I512
sS'unique'
p5
I00
sS'sortable'
p6
I2
sS'sql'
p7
S'CHAR(512)'
p8
sS'notnull'
p9
I00
sS'type'
p10
S'string'
p11
ssS'patient_id'
p12
(dp13
g4
I512
sg5
I00
sg6
I5
sg7
S'INTEGER'
p14
sg9
I00
sg10
S'integer'
p15
ssS'db_entry_on'
p16
(dp17
g4
I512
sg5
I00
sg6
I6
sg7
S'TIMESTAMP'
p18
sg9
I00
sg10
S'datetime'
p19
ssS'device'
p20
(dp21
g4
I512
sg5
I00
sg6
I3
sg7
S'CHAR(512)'
p22
sg9
I00
sg10
g11
ssS'used_on'
p23
(dp24
g4
I512
sg5
I00
sg6
I4
sg7
S'TIMESTAMP'
p25
sg9
I00
sg10
g19
ssS'id'
p26
(dp27
g4
I512
sg5
I00
sg6
I1
sg7
S'INTEGER PRIMARY KEY AUTOINCREMENT'
p28
sg9
I00
sg10
g26
ss.