(dp1
S'last_execution'
p2
(dp3
S'length'
p4
I512
sS'unique'
p5
I00
sS'sortable'
p6
I7
sS'sql'
p7
S'TIMESTAMP'
p8
sS'notnull'
p9
I00
sS'type'
p10
S'datetime'
p11
ssS'medium'
p12
(dp13
g4
I512
sg5
I00
sg6
I5
sg7
S'CHAR(512)'
p14
sg9
I00
sg10
S'string'
p15
ssS'trigger_expression'
p16
(dp17
g4
I512
sg5
I00
sg6
I2
sg7
S'CHAR(512)'
p18
sg9
I00
sg10
g15
ssS'bulletin_medium'
p19
(dp20
S'sortable'
p21
I2
sS'sql'
p22
S'CHAR(512)'
p23
sS'length'
p24
I512
sS'notnull'
p25
I00
sS'unique'
p26
I00
sS'type'
p27
S'string'
p28
ssS'is_active'
p29
(dp30
g4
I512
sg5
I00
sg6
I6
sg7
S'CHAR(1) NOT NULL'
p31
sg9
I01
sg10
S'boolean'
p32
ssS'to_user'
p33
(dp34
g4
I512
sg5
I00
sg6
I4
sg7
S'INTEGER REFERENCES auth_user (id) ON DELETE CASCADE  '
p35
sg9
I00
sg10
S'reference auth_user'
p36
ssS'information'
p37
(dp38
S'sortable'
p39
I3
sS'sql'
p40
S'CHAR(512)'
p41
sS'length'
p42
I512
sS'notnull'
p43
I00
sS'unique'
p44
I00
sS'type'
p45
S'string'
p46
ssS'bulletin_type'
p47
(dp48
S'sortable'
p49
I4
sS'sql'
p50
S'CHAR(512)'
p51
sS'length'
p52
I512
sS'notnull'
p53
I00
sS'unique'
p54
I00
sS'type'
p55
S'string'
p56
ssS'content_type'
p57
(dp58
g4
I512
sg5
I00
sg6
I3
sg7
S'CHAR(512)'
p59
sg9
I00
sg10
g15
ssS'expression'
p60
(dp61
S'sortable'
p62
I2
sS'sql'
p63
S'CHAR(512)'
p64
sS'length'
p65
I512
sS'notnull'
p66
I00
sS'unique'
p67
I00
sS'type'
p68
S'string'
p69
ssS'id'
p70
(dp71
g4
I512
sg5
I00
sg6
I1
sg7
S'INTEGER PRIMARY KEY AUTOINCREMENT'
p72
sg9
I00
sg10
S'id'
p73
ssS'last_trigger'
p74
(dp75
S'sortable'
p76
I7
sS'sql'
p77
S'TIMESTAMP'
p78
sS'length'
p79
I512
sS'notnull'
p80
I00
sS'unique'
p81
I00
sS'type'
p82
S'datetime'
p83
ss.