(dp1
S'information'
p2
(dp3
S'sortable'
p4
I3
sS'sql'
p5
S'CHAR(512)'
p6
sS'length'
p7
I512
sS'notnull'
p8
I00
sS'unique'
p9
I00
sS'type'
p10
S'string'
p11
ssS'medium'
p12
(dp13
S'length'
p14
I512
sS'unique'
p15
I00
sS'sortable'
p16
I5
sS'sql'
p17
S'CHAR(512)'
p18
sS'notnull'
p19
I00
sS'type'
p20
S'string'
p21
ssS'trigger_expression'
p22
(dp23
g14
I512
sg15
I00
sg16
I2
sg17
S'CHAR(512)'
p24
sg19
I00
sg20
g21
ssS'bulletin_medium'
p25
(dp26
S'sortable'
p27
I2
sS'sql'
p28
S'CHAR(512)'
p29
sS'length'
p30
I512
sS'notnull'
p31
I00
sS'unique'
p32
I00
sS'type'
p33
S'string'
p34
ssS'is_active'
p35
(dp36
g14
I512
sg15
I00
sg16
I6
sg17
S'CHAR(1) NOT NULL'
p37
sg19
I01
sg20
S'boolean'
p38
ssS'to_user'
p39
(dp40
g14
I512
sg15
I00
sg16
I4
sg17
S'INTEGER REFERENCES auth_user (id) ON DELETE CASCADE  '
p41
sg19
I00
sg20
S'reference auth_user'
p42
ssS'bulletin_type'
p43
(dp44
S'sortable'
p45
I4
sS'sql'
p46
S'CHAR(512)'
p47
sS'length'
p48
I512
sS'notnull'
p49
I00
sS'unique'
p50
I00
sS'type'
p51
S'string'
p52
ssS'content_type'
p53
(dp54
g14
I512
sg15
I00
sg16
I3
sg17
S'CHAR(512)'
p55
sg19
I00
sg20
g21
ssS'expression'
p56
(dp57
S'sortable'
p58
I2
sS'sql'
p59
S'CHAR(512)'
p60
sS'length'
p61
I512
sS'notnull'
p62
I00
sS'unique'
p63
I00
sS'type'
p64
S'string'
p65
ssS'id'
p66
(dp67
g14
I512
sg15
I00
sg16
I1
sg17
S'INTEGER PRIMARY KEY AUTOINCREMENT'
p68
sg19
I00
sg20
S'id'
p69
ss.