(dp1
S'time_used'
p2
(dp3
S'length'
p4
I512
sS'unique'
p5
I00
sS'sortable'
p6
I5
sS'sql'
p7
S'TIMESTAMP'
p8
sS'notnull'
p9
I00
sS'type'
p10
S'datetime'
p11
ssS'site'
p12
(dp13
g4
I512
sg5
I00
sg6
I3
sg7
S'INTEGER REFERENCES site (id) ON DELETE CASCADE  '
p14
sg9
I00
sg10
S'reference site'
p15
ssS'patient_id'
p16
(dp17
g4
I512
sg5
I00
sg6
I7
sg7
S'INTEGER'
p18
sg9
I00
sg10
S'integer'
p19
ssS'device'
p20
(dp21
g4
I512
sg5
I00
sg6
I2
sg7
S'INTEGER REFERENCES device (id) ON DELETE CASCADE  '
p22
sg9
I00
sg10
S'reference device'
p23
ssS'use_type'
p24
(dp25
g4
I512
sg5
I00
sg6
I4
sg7
S'CHAR(512)'
p26
sg9
I00
sg10
S'string'
p27
ssS'id'
p28
(dp29
g4
I512
sg5
I00
sg6
I1
sg7
S'INTEGER PRIMARY KEY AUTOINCREMENT'
p30
sg9
I00
sg10
g28
ssS'time_received'
p31
(dp32
g4
I512
sg5
I00
sg6
I6
sg7
S'TIMESTAMP'
p33
sg9
I00
sg10
g11
ss.