(dp1
S'phone_number'
p2
(dp3
S'length'
p4
I512
sS'unique'
p5
I00
sS'sortable'
p6
I5
sS'sql'
p7
S'CHAR(512)'
p8
sS'notnull'
p9
I00
sS'type'
p10
S'string'
p11
ssS'timezone'
p12
(dp13
S'sortable'
p14
I6
sS'sql'
p15
S'INTEGER'
p16
sS'length'
p17
I512
sS'notnull'
p18
I00
sS'unique'
p19
I00
sS'type'
p20
S'integer'
p21
ssS'name'
p22
(dp23
g4
I512
sg5
I00
sg6
I2
sg7
S'CHAR(512)'
p24
sg9
I00
sg10
g11
ssS'address'
p25
(dp26
g4
I512
sg5
I00
sg6
I4
sg7
S'CHAR(512)'
p27
sg9
I00
sg10
g11
ssS'country'
p28
(dp29
g4
I512
sg5
I00
sg6
I3
sg7
S'CHAR(512)'
p30
sg9
I00
sg10
g11
ssS'time_zone'
p31
(dp32
g4
I512
sg5
I00
sg6
I6
sg7
S'INTEGER'
p33
sg9
I00
sg10
S'integer'
p34
ssS'id'
p35
(dp36
g4
I512
sg5
I00
sg6
I1
sg7
S'INTEGER PRIMARY KEY AUTOINCREMENT'
p37
sg9
I00
sg10
S'id'
p38
ss.